; Function Attrs: nounwind uwtable
define internal fastcc noundef zeroext i1 @transfer_first_span(ptr noundef captures(none) %0, ptr noundef captures(none) %1, i32 noundef range(i32 0, 3) %2, i32 noundef range(i32 1, 4) %3) unnamed_addr #0 {
  %5 = getelementptr inbounds nuw i8, ptr %1, i64 16
  %6 = zext nneg i32 %2 to i64
  %7 = getelementptr inbounds nuw [4 x i64], ptr %5, i64 0, i64 %6
  %8 = load i64, ptr %7, align 8
  %.not = icmp ne i64 %8, 0
  br i1 %.not, label %9, label %80

9:                                                ; preds = %4
  tail call void asm sideeffect "", "~{memory},~{dirflag},~{fpsr},~{flags}"() #11, !srcloc !9
  %10 = load ptr, ptr %0, align 8
  %11 = getelementptr inbounds nuw i8, ptr %10, i64 6160
  %12 = load i64, ptr %11, align 8
  %13 = getelementptr inbounds nuw i8, ptr %0, i64 40984
  %14 = load i64, ptr %13, align 8
  %.not.i.i = icmp eq i64 %14, %12
  br i1 %.not.i.i, label %check_for_freed_segments.exit.i, label %15, !prof !10

15:                                               ; preds = %9
  %16 = getelementptr inbounds nuw i8, ptr %10, i64 6172
  %17 = tail call zeroext i1 @LWLockAcquire(ptr noundef nonnull %16, i32 noundef 0) #11
  tail call fastcc void @check_for_freed_segments_locked(ptr noundef nonnull %0)
  %18 = load ptr, ptr %0, align 8
  %19 = getelementptr inbounds nuw i8, ptr %18, i64 6172
  tail call void @LWLockRelease(ptr noundef nonnull %19) #11
  br label %check_for_freed_segments.exit.i

check_for_freed_segments.exit.i:                  ; preds = %15, %9
  %20 = lshr i64 %8, 40
  %21 = and i64 %8, 1099511627775
  %.idx.i = mul nuw nsw i64 %20, 40
  %22 = getelementptr i8, ptr %0, i64 24
  %23 = getelementptr i8, ptr %22, i64 %.idx.i
  %24 = load ptr, ptr %23, align 8
  %25 = icmp eq ptr %24, null
  br i1 %25, label %26, label %dsa_get_address.exit, !prof !11

26:                                               ; preds = %check_for_freed_segments.exit.i
  %27 = tail call fastcc ptr @get_segment_by_index(ptr noundef nonnull %0, i64 noundef %20)
  %.pre.i = load ptr, ptr %23, align 8
  br label %dsa_get_address.exit

dsa_get_address.exit:                             ; preds = %check_for_freed_segments.exit.i, %26
  %28 = phi ptr [ %.pre.i, %26 ], [ %24, %check_for_freed_segments.exit.i ]
  %29 = getelementptr inbounds nuw i8, ptr %28, i64 %21
  %30 = getelementptr inbounds nuw i8, ptr %29, i64 16
  %31 = load i64, ptr %30, align 8
  store i64 %31, ptr %7, align 8
  %.not28 = icmp eq i64 %31, 0
  br i1 %.not28, label %52, label %32

32:                                               ; preds = %dsa_get_address.exit
  tail call void asm sideeffect "", "~{memory},~{dirflag},~{fpsr},~{flags}"() #11, !srcloc !9
  %33 = load ptr, ptr %0, align 8
  %34 = getelementptr inbounds nuw i8, ptr %33, i64 6160
  %35 = load i64, ptr %34, align 8
  %36 = load i64, ptr %13, align 8
  %.not.i.i31 = icmp eq i64 %36, %35
  br i1 %.not.i.i31, label %check_for_freed_segments.exit.i32, label %37, !prof !10

37:                                               ; preds = %32
  %38 = getelementptr inbounds nuw i8, ptr %33, i64 6172
  %39 = tail call zeroext i1 @LWLockAcquire(ptr noundef nonnull %38, i32 noundef 0) #11
  tail call fastcc void @check_for_freed_segments_locked(ptr noundef nonnull %0)
  %40 = load ptr, ptr %0, align 8
  %41 = getelementptr inbounds nuw i8, ptr %40, i64 6172
  tail call void @LWLockRelease(ptr noundef nonnull %41) #11
  br label %check_for_freed_segments.exit.i32

check_for_freed_segments.exit.i32:                ; preds = %37, %32
  %42 = lshr i64 %31, 40
  %43 = and i64 %31, 1099511627775
  %.idx.i33 = mul nuw nsw i64 %42, 40
  %44 = getelementptr i8, ptr %22, i64 %.idx.i33
  %45 = load ptr, ptr %44, align 8
  %46 = icmp eq ptr %45, null
  br i1 %46, label %47, label %dsa_get_address.exit36, !prof !11

47:                                               ; preds = %check_for_freed_segments.exit.i32
  %48 = tail call fastcc ptr @get_segment_by_index(ptr noundef nonnull %0, i64 noundef %42)
  %.pre.i35 = load ptr, ptr %44, align 8
  br label %dsa_get_address.exit36

dsa_get_address.exit36:                           ; preds = %check_for_freed_segments.exit.i32, %47
  %49 = phi ptr [ %.pre.i35, %47 ], [ %45, %check_for_freed_segments.exit.i32 ]
  %50 = getelementptr inbounds nuw i8, ptr %49, i64 %43
  %51 = getelementptr inbounds nuw i8, ptr %50, i64 8
  store i64 0, ptr %51, align 8
  br label %52

52:                                               ; preds = %dsa_get_address.exit36, %dsa_get_address.exit
  %53 = zext nneg i32 %3 to i64
  %54 = getelementptr inbounds nuw [4 x i64], ptr %5, i64 0, i64 %53
  %55 = load i64, ptr %54, align 8
  store i64 %55, ptr %30, align 8
  store i64 %8, ptr %54, align 8
  %56 = load i64, ptr %30, align 8
  %.not29 = icmp eq i64 %56, 0
  br i1 %.not29, label %77, label %57

57:                                               ; preds = %52
  tail call void asm sideeffect "", "~{memory},~{dirflag},~{fpsr},~{flags}"() #11, !srcloc !9
  %58 = load ptr, ptr %0, align 8
  %59 = getelementptr inbounds nuw i8, ptr %58, i64 6160
  %60 = load i64, ptr %59, align 8
  %61 = load i64, ptr %13, align 8
  %.not.i.i38 = icmp eq i64 %61, %60
  br i1 %.not.i.i38, label %check_for_freed_segments.exit.i39, label %62, !prof !10

62:                                               ; preds = %57
  %63 = getelementptr inbounds nuw i8, ptr %58, i64 6172
  %64 = tail call zeroext i1 @LWLockAcquire(ptr noundef nonnull %63, i32 noundef 0) #11
  tail call fastcc void @check_for_freed_segments_locked(ptr noundef nonnull %0)
  %65 = load ptr, ptr %0, align 8
  %66 = getelementptr inbounds nuw i8, ptr %65, i64 6172
  tail call void @LWLockRelease(ptr noundef nonnull %66) #11
  br label %check_for_freed_segments.exit.i39

check_for_freed_segments.exit.i39:                ; preds = %62, %57
  %67 = lshr i64 %56, 40
  %68 = and i64 %56, 1099511627775
  %.idx.i40 = mul nuw nsw i64 %67, 40
  %69 = getelementptr i8, ptr %22, i64 %.idx.i40
  %70 = load ptr, ptr %69, align 8
  %71 = icmp eq ptr %70, null
  br i1 %71, label %72, label %dsa_get_address.exit43, !prof !11

72:                                               ; preds = %check_for_freed_segments.exit.i39
  %73 = tail call fastcc ptr @get_segment_by_index(ptr noundef nonnull %0, i64 noundef %67)
  %.pre.i42 = load ptr, ptr %69, align 8
  br label %dsa_get_address.exit43

dsa_get_address.exit43:                           ; preds = %check_for_freed_segments.exit.i39, %72
  %74 = phi ptr [ %.pre.i42, %72 ], [ %70, %check_for_freed_segments.exit.i39 ]
  %75 = getelementptr inbounds nuw i8, ptr %74, i64 %68
  %76 = getelementptr inbounds nuw i8, ptr %75, i64 8
  store i64 %8, ptr %76, align 8
  br label %77

77:                                               ; preds = %dsa_get_address.exit43, %52
  %78 = trunc nuw nsw i32 %3 to i16
  %79 = getelementptr inbounds nuw i8, ptr %29, i64 50
  store i16 %78, ptr %79, align 2
  br label %80

80:                                               ; preds = %4, %77
  ret i1 %.not
}